target datalayout = "e-m:e-p270:32:32-p271:32:32-p272:64:64-i64:64-i128:128-f80:128-n8:16:32:64-S128"
target triple = "x86_64-pc-linux-gnu"

%"struct.llvm::Align" = type { i8 }
%"class.llvm::LLT" = type { i64 }
%"struct.llvm::MachinePointerInfo" = type <{ %"class.llvm::PointerUnion.301", i64, i32, i8, [3 x i8] }>
%"class.llvm::PointerUnion.301" = type { %"class.llvm::pointer_union_detail::PointerUnionMembers.302" }
%"class.llvm::pointer_union_detail::PointerUnionMembers.302" = type { %"class.llvm::pointer_union_detail::PointerUnionMembers.303" }
%"class.llvm::pointer_union_detail::PointerUnionMembers.303" = type { %"class.llvm::pointer_union_detail::PointerUnionMembers.304" }
%"class.llvm::pointer_union_detail::PointerUnionMembers.304" = type { %"class.llvm::PointerIntPair.305" }
%"class.llvm::PointerIntPair.305" = type { %"struct.llvm::detail::PunnedPointer.89" }
%"struct.llvm::detail::PunnedPointer.89" = type { [8 x i8] }
%"class.llvm::MachineMemOperand" = type { %"struct.llvm::MachinePointerInfo", %"class.llvm::LLT", i16, %"struct.llvm::Align", %"struct.llvm::MachineMemOperand::MachineAtomicInfo", %"struct.llvm::AAMDNodes", ptr }
%"struct.llvm::MachineMemOperand::MachineAtomicInfo" = type { i16, [2 x i8] }
%"struct.llvm::AAMDNodes" = type { ptr, ptr, ptr, ptr }

; Function Attrs: mustprogress nounwind uwtable
define dso_local void @_ZN4llvm17MachineMemOperandC2ENS_18MachinePointerInfoENS0_5FlagsENS_3LLTENS_5AlignERKNS_9AAMDNodesEPKNS_6MDNodeEhNS_14AtomicOrderingESB_(ptr noundef nonnull align 8 dereferenceable(80) %0, ptr noundef byval(%"struct.llvm::MachinePointerInfo") align 8 %1, i16 noundef zeroext %2, i64 %3, i8 %4, ptr noundef nonnull align 8 dereferenceable(32) %5, ptr noundef %6, i8 noundef zeroext %7, i32 noundef %8, i32 noundef %9) unnamed_addr #1 align 2 {
  %11 = alloca %"class.llvm::LLT", align 8
  %12 = alloca %"struct.llvm::Align", align 1
  %13 = alloca ptr, align 8
  %14 = alloca i16, align 2
  %15 = alloca ptr, align 8
  %16 = alloca ptr, align 8
  %17 = alloca i8, align 1
  %18 = alloca i32, align 4
  %19 = alloca i32, align 4
  %20 = getelementptr inbounds nuw %"class.llvm::LLT", ptr %11, i32 0, i32 0
  store i64 %3, ptr %20, align 8
  %21 = getelementptr inbounds nuw %"struct.llvm::Align", ptr %12, i32 0, i32 0
  store i8 %4, ptr %21, align 1
  store ptr %0, ptr %13, align 8
  store i16 %2, ptr %14, align 2
  store ptr %5, ptr %15, align 8
  store ptr %6, ptr %16, align 8
  store i8 %7, ptr %17, align 1
  store i32 %8, ptr %18, align 4
  store i32 %9, ptr %19, align 4
  %22 = load ptr, ptr %13, align 8
  %23 = getelementptr inbounds nuw %"class.llvm::MachineMemOperand", ptr %22, i32 0, i32 0
  call void @llvm.memcpy.p0.p0.i64(ptr align 8 %23, ptr align 8 %1, i64 24, i1 false)
  %24 = getelementptr inbounds nuw %"class.llvm::MachineMemOperand", ptr %22, i32 0, i32 1
  call void @llvm.memcpy.p0.p0.i64(ptr align 8 %24, ptr align 8 %11, i64 8, i1 false)
  %25 = getelementptr inbounds nuw %"class.llvm::MachineMemOperand", ptr %22, i32 0, i32 2
  %26 = load i16, ptr %14, align 2
  store i16 %26, ptr %25, align 8
  %27 = getelementptr inbounds nuw %"class.llvm::MachineMemOperand", ptr %22, i32 0, i32 3
  call void @llvm.memcpy.p0.p0.i64(ptr align 2 %27, ptr align 1 %12, i64 1, i1 false)
  %28 = getelementptr inbounds nuw %"class.llvm::MachineMemOperand", ptr %22, i32 0, i32 5
  %29 = load ptr, ptr %15, align 8
  call void @llvm.memcpy.p0.p0.i64(ptr align 8 %28, ptr align 8 %29, i64 32, i1 false)
  %30 = getelementptr inbounds nuw %"class.llvm::MachineMemOperand", ptr %22, i32 0, i32 6
  %31 = load ptr, ptr %16, align 8
  store ptr %31, ptr %30, align 8
  %32 = load i8, ptr %17, align 1
  %33 = zext i8 %32 to i32
  %34 = getelementptr inbounds nuw %"class.llvm::MachineMemOperand", ptr %22, i32 0, i32 4
  %35 = trunc i32 %33 to i16
  %36 = load i16, ptr %34, align 4
  %37 = and i16 %35, 255
  %38 = and i16 %36, -256
  %39 = or i16 %38, %37
  store i16 %39, ptr %34, align 4
  %40 = load i32, ptr %18, align 4
  %41 = getelementptr inbounds nuw %"class.llvm::MachineMemOperand", ptr %22, i32 0, i32 4
  %42 = trunc i32 %40 to i16
  %43 = load i16, ptr %41, align 4
  %44 = and i16 %42, 15
  %45 = shl i16 %44, 8
  %46 = and i16 %43, -3841
  %47 = or i16 %46, %45
  store i16 %47, ptr %41, align 4
  %48 = load i32, ptr %19, align 4
  %49 = getelementptr inbounds nuw %"class.llvm::MachineMemOperand", ptr %22, i32 0, i32 4
  %50 = trunc i32 %48 to i16
  %51 = load i16, ptr %49, align 4
  %52 = and i16 %50, 15
  %53 = shl i16 %52, 12
  %54 = and i16 %51, 4095
  %55 = or i16 %54, %53
  store i16 %55, ptr %49, align 4
  ret void
}