; Function Attrs: mustprogress nofree norecurse nosync nounwind willreturn memory(argmem: readwrite) uwtable
define dso_local void @_ZN4llvm17MachineMemOperandC2ENS_18MachinePointerInfoENS0_5FlagsENS_3LLTENS_5AlignERKNS_9AAMDNodesEPKNS_6MDNodeEhNS_14AtomicOrderingESB_(ptr noundef nonnull writeonly align 8 captures(none) dereferenceable(80) initializes((0, 35), (36, 38), (40, 80)) %0, ptr noundef readonly byval(%"struct.llvm::MachinePointerInfo") align 8 captures(none) %1, i16 noundef zeroext %2, i64 %3, i8 %4, ptr noundef nonnull readonly align 8 captures(none) dereferenceable(32) %5, ptr noundef %6, i8 noundef zeroext %7, i32 noundef %8, i32 noundef %9) unnamed_addr #5 align 2 {
  call void @llvm.memcpy.p0.p0.i64(ptr noundef nonnull align 8 dereferenceable(24) %0, ptr noundef nonnull align 8 dereferenceable(24) %1, i64 24, i1 false)
  %11 = getelementptr inbounds nuw i8, ptr %0, i64 24
  store i64 %3, ptr %11, align 8
  %12 = getelementptr inbounds nuw i8, ptr %0, i64 32
  store i16 %2, ptr %12, align 8
  %13 = getelementptr inbounds nuw i8, ptr %0, i64 34
  store i8 %4, ptr %13, align 2
  %14 = getelementptr inbounds nuw i8, ptr %0, i64 40
  tail call void @llvm.memcpy.p0.p0.i64(ptr noundef nonnull align 8 dereferenceable(32) %14, ptr noundef nonnull align 8 dereferenceable(32) %5, i64 32, i1 false)
  %15 = getelementptr inbounds nuw i8, ptr %0, i64 72
  store ptr %6, ptr %15, align 8
  %16 = getelementptr inbounds nuw i8, ptr %0, i64 36
  %17 = zext i8 %7 to i16
  %18 = trunc i32 %8 to i16
  %19 = shl i16 %18, 8
  %20 = trunc i32 %9 to i16
  %21 = shl i16 %20, 12
  %.masked = and i16 %19, 3840
  %22 = or disjoint i16 %.masked, %17
  %23 = or disjoint i16 %22, %21
  store i16 %23, ptr %16, align 4
  ret void
}